; Function Attrs: nounwind uwtable
define ptr @l_Lean_ShareCommon_PShareCommonT_run___rarg(ptr noundef %0, ptr noundef %1) #0 {
  %3 = getelementptr inbounds nuw i8, ptr %0, i64 8
  %4 = load ptr, ptr %3, align 8, !tbaa !11
  %5 = ptrtoint ptr %4 to i64
  %6 = and i64 %5, 1
  %.not = icmp eq i64 %6, 0
  br i1 %.not, label %7, label %lean_inc.exit18

7:                                                ; preds = %2
  %.val.i = load i32, ptr %4, align 4, !tbaa !5
  %8 = icmp sgt i32 %.val.i, 0
  br i1 %8, label %9, label %11, !prof !10

9:                                                ; preds = %7
  %10 = add nuw i32 %.val.i, 1
  store i32 %10, ptr %4, align 4, !tbaa !5
  br label %lean_inc.exit18

11:                                               ; preds = %7
  %.not.i23 = icmp eq i32 %.val.i, 0
  br i1 %.not.i23, label %lean_inc.exit18, label %12

12:                                               ; preds = %11
  tail call void @lean_inc_ref_cold(ptr noundef nonnull %4) #4
  br label %lean_inc.exit18

lean_inc.exit18:                                  ; preds = %12, %11, %9, %2
  %13 = ptrtoint ptr %0 to i64
  %14 = and i64 %13, 1
  %.not30 = icmp eq i64 %14, 0
  br i1 %.not30, label %15, label %lean_dec.exit16

15:                                               ; preds = %lean_inc.exit18
  %16 = load i32, ptr %0, align 4, !tbaa !5
  %17 = icmp sgt i32 %16, 1
  br i1 %17, label %18, label %20, !prof !10

18:                                               ; preds = %15
  %19 = add nsw i32 %16, -1
  store i32 %19, ptr %0, align 4, !tbaa !5
  br label %lean_dec.exit16

20:                                               ; preds = %15
  %.not.i = icmp eq i32 %16, 0
  br i1 %.not.i, label %lean_dec.exit16, label %21

21:                                               ; preds = %20
  tail call void @lean_dec_ref_cold(ptr noundef nonnull %0) #4
  br label %lean_dec.exit16

lean_dec.exit16:                                  ; preds = %21, %20, %18, %lean_inc.exit18
  %22 = getelementptr inbounds nuw i8, ptr %4, i64 8
  %23 = load ptr, ptr %22, align 8, !tbaa !11
  %24 = ptrtoint ptr %23 to i64
  %25 = and i64 %24, 1
  %.not31 = icmp eq i64 %25, 0
  br i1 %.not31, label %26, label %lean_inc.exit17

26:                                               ; preds = %lean_dec.exit16
  %.val.i24 = load i32, ptr %23, align 4, !tbaa !5
  %27 = icmp sgt i32 %.val.i24, 0
  br i1 %27, label %28, label %30, !prof !10

28:                                               ; preds = %26
  %29 = add nuw i32 %.val.i24, 1
  store i32 %29, ptr %23, align 4, !tbaa !5
  br label %lean_inc.exit17

30:                                               ; preds = %26
  %.not.i25 = icmp eq i32 %.val.i24, 0
  br i1 %.not.i25, label %lean_inc.exit17, label %31

31:                                               ; preds = %30
  tail call void @lean_inc_ref_cold(ptr noundef nonnull %23) #4
  br label %lean_inc.exit17

lean_inc.exit17:                                  ; preds = %31, %30, %28, %lean_dec.exit16
  br i1 %.not, label %32, label %lean_dec.exit15

32:                                               ; preds = %lean_inc.exit17
  %33 = load i32, ptr %4, align 4, !tbaa !5
  %34 = icmp sgt i32 %33, 1
  br i1 %34, label %35, label %37, !prof !10

35:                                               ; preds = %32
  %36 = add nsw i32 %33, -1
  store i32 %36, ptr %4, align 4, !tbaa !5
  br label %lean_dec.exit15

37:                                               ; preds = %32
  %.not.i19 = icmp eq i32 %33, 0
  br i1 %.not.i19, label %lean_dec.exit15, label %38

38:                                               ; preds = %37
  tail call void @lean_dec_ref_cold(ptr noundef nonnull %4) #4
  br label %lean_dec.exit15

lean_dec.exit15:                                  ; preds = %38, %37, %35, %lean_inc.exit17
  %39 = getelementptr inbounds nuw i8, ptr %23, i64 8
  %40 = load ptr, ptr %39, align 8, !tbaa !11
  %41 = ptrtoint ptr %40 to i64
  %42 = and i64 %41, 1
  %.not32 = icmp eq i64 %42, 0
  br i1 %.not32, label %43, label %lean_inc.exit

43:                                               ; preds = %lean_dec.exit15
  %.val.i27 = load i32, ptr %40, align 4, !tbaa !5
  %44 = icmp sgt i32 %.val.i27, 0
  br i1 %44, label %45, label %47, !prof !10

45:                                               ; preds = %43
  %46 = add nuw i32 %.val.i27, 1
  store i32 %46, ptr %40, align 4, !tbaa !5
  br label %lean_inc.exit

47:                                               ; preds = %43
  %.not.i28 = icmp eq i32 %.val.i27, 0
  br i1 %.not.i28, label %lean_inc.exit, label %48

48:                                               ; preds = %47
  tail call void @lean_inc_ref_cold(ptr noundef nonnull %40) #4
  br label %lean_inc.exit

lean_inc.exit:                                    ; preds = %48, %47, %45, %lean_dec.exit15
  br i1 %.not31, label %49, label %lean_dec.exit

49:                                               ; preds = %lean_inc.exit
  %50 = load i32, ptr %23, align 4, !tbaa !5
  %51 = icmp sgt i32 %50, 1
  br i1 %51, label %52, label %54, !prof !10

52:                                               ; preds = %49
  %53 = add nsw i32 %50, -1
  store i32 %53, ptr %23, align 4, !tbaa !5
  br label %lean_dec.exit

54:                                               ; preds = %49
  %.not.i21 = icmp eq i32 %50, 0
  br i1 %.not.i21, label %lean_dec.exit, label %55

55:                                               ; preds = %54
  tail call void @lean_dec_ref_cold(ptr noundef nonnull %23) #4
  br label %lean_dec.exit

lean_dec.exit:                                    ; preds = %55, %54, %52, %lean_inc.exit
  %56 = load ptr, ptr @l_Lean_ShareCommon_PShareCommonT_run___rarg___closed__1, align 8, !tbaa !11
  %57 = tail call ptr @lean_apply_1(ptr noundef %1, ptr noundef %56) #4
  %58 = load ptr, ptr @l_Lean_ShareCommon_ShareCommonT_run___rarg___closed__2, align 8, !tbaa !11
  %59 = tail call ptr @lean_apply_4(ptr noundef %40, ptr noundef nonnull inttoptr (i64 1 to ptr), ptr noundef nonnull inttoptr (i64 1 to ptr), ptr noundef %58, ptr noundef %57) #4
  ret ptr %59
}